
Allocating common symbols
Common symbol       size              file

icount              0x4               src/raspi/main.o

Memory Configuration

Name             Origin             Length             Attributes
ram              0x00008000         0x10000000
*default*        0x00000000         0xffffffff

Linker script and memory map

LOAD src/raspi/setup.o
LOAD src/raspi/vectors.o
LOAD src/raspi/blinker01.o
LOAD src/raspi/main.o

.text           0x00008000      0xc4c
 *(.text)
 .text          0x00008000      0x980 src/raspi/setup.o
                0x00008000                _start
                0x0000805c                dummy
                0x00008560                exc_stack
                0x00008960                supervisor_sp
 .text          0x00008980       0x2c src/raspi/vectors.o
                0x00008980                PUT32
                0x00008988                PUT16
                0x00008990                PUT8
                0x00008998                GET32
                0x000089a0                GETPC
                0x000089a8                BRANCHTO
 .text          0x000089ac      0x118 src/raspi/blinker01.o
                0x000089ac                notmain
 .text          0x00008ac4      0x188 src/raspi/main.o
                0x00008ac4                not_main
                0x00008bdc                c_irq_handler

.glue_7         0x00008c4c        0x0
 .glue_7        0x00000000        0x0 linker stubs

.glue_7t        0x00008c4c        0x0
 .glue_7t       0x00000000        0x0 linker stubs

.vfp11_veneer   0x00008c4c        0x0
 .vfp11_veneer  0x00000000        0x0 linker stubs

.v4_bx          0x00008c4c        0x0
 .v4_bx         0x00000000        0x0 linker stubs

.data           0x00008c4c        0x0
 *(.data)
 .data          0x00008c4c        0x0 src/raspi/setup.o
 .data          0x00008c4c        0x0 src/raspi/vectors.o
 .data          0x00008c4c        0x0 src/raspi/blinker01.o
 .data          0x00008c4c        0x0 src/raspi/main.o
                0x00008c4c                __bss_start__ = .

.bss            0x00008c4c        0x4
 *(.bss)
 .bss           0x00008c4c        0x0 src/raspi/setup.o
 .bss           0x00008c4c        0x0 src/raspi/vectors.o
 .bss           0x00008c4c        0x0 src/raspi/blinker01.o
 .bss           0x00008c4c        0x0 src/raspi/main.o
 COMMON         0x00008c4c        0x4 src/raspi/main.o
                0x00008c4c                icount
                0x00008c50                __bss_end__ = .
OUTPUT(bin/kernel.elf elf32-littlearm)

.ARM.attributes
                0x00000000       0x34
 .ARM.attributes
                0x00000000       0x28 src/raspi/setup.o
 .ARM.attributes
                0x00000028       0x28 src/raspi/vectors.o
 .ARM.attributes
                0x00000050       0x38 src/raspi/blinker01.o
 .ARM.attributes
                0x00000088       0x38 src/raspi/main.o

.comment        0x00000000       0x11
 .comment       0x00000000       0x11 src/raspi/blinker01.o
                                 0x12 (size before relaxing)
 .comment       0x00000000       0x12 src/raspi/main.o

.debug_line     0x00000000      0x160
 .debug_line    0x00000000       0x61 src/raspi/setup.o
 .debug_line    0x00000061       0x4b src/raspi/vectors.o
 .debug_line    0x000000ac       0x59 src/raspi/blinker01.o
 .debug_line    0x00000105       0x5b src/raspi/main.o

.debug_info     0x00000000      0x227
 .debug_info    0x00000000       0x70 src/raspi/setup.o
 .debug_info    0x00000070       0x72 src/raspi/vectors.o
 .debug_info    0x000000e2       0x6c src/raspi/blinker01.o
 .debug_info    0x0000014e       0xd9 src/raspi/main.o

.debug_abbrev   0x00000000      0x108
 .debug_abbrev  0x00000000       0x14 src/raspi/setup.o
 .debug_abbrev  0x00000014       0x14 src/raspi/vectors.o
 .debug_abbrev  0x00000028       0x52 src/raspi/blinker01.o
 .debug_abbrev  0x0000007a       0x8e src/raspi/main.o

.debug_aranges  0x00000000       0x80
 .debug_aranges
                0x00000000       0x20 src/raspi/setup.o
 .debug_aranges
                0x00000020       0x20 src/raspi/vectors.o
 .debug_aranges
                0x00000040       0x20 src/raspi/blinker01.o
 .debug_aranges
                0x00000060       0x20 src/raspi/main.o

.debug_loc      0x00000000       0x84
 .debug_loc     0x00000000       0x2c src/raspi/blinker01.o
 .debug_loc     0x0000002c       0x58 src/raspi/main.o

.debug_str      0x00000000       0xf9
 .debug_str     0x00000000       0x6d src/raspi/blinker01.o
                                 0x7a (size before relaxing)
 .debug_str     0x0000006d       0x8c src/raspi/main.o
                                 0xf4 (size before relaxing)

.debug_frame    0x00000000       0x74
 .debug_frame   0x00000000       0x2c src/raspi/blinker01.o
 .debug_frame   0x0000002c       0x48 src/raspi/main.o
